(dp1
VindustryData
p2
(lp3
(dp4
Vindustry_id
p5
I123
sVindustry_name_level_1
p6
V\u5bb6\u7535\u7528\u54c1
p7
sVindustry_level_1
p8
I5
sVrank
p9
VA
sVscore
p10
F0.80000000000000004
sVindustry_name
p11
V\u53a8\u623f\u7528\u54c1
p12
sa(dp13
Vindustry_id
p14
I139
sVindustry_name_level_1
p15
V\u6c7d\u8f66
p16
sVindustry_level_1
p17
I16
sVrank
p18
VA
sVscore
p19
F0.80000000000000004
sVindustry_name
p20
V\u8fd0\u8f93\u8f66
p21
sa(dp22
Vindustry_id
p23
I122
sVindustry_name_level_1
p24
V\u5bb6\u7535\u7528\u54c1
p25
sVindustry_level_1
p26
I5
sVrank
p27
VA
sVscore
p28
F0.71111111111111114
sVindustry_name
p29
V\u6d17\u8863\u673a
p30
sasVproductData
p31
(lp32
(dp33
Vscore
p34
I8
sVproduct_id
p35
I1768
sVrank
p36
VD
sVproduct_name
p37
V\u5143\u6cf0\u666e\u901a\u5f3a\u5ea6\u6a61\u5957\u8f6f\u7ebf
p38
sa(dp39
Vscore
p40
I8
sVproduct_id
p41
I1760
sVrank
p42
VD
sVproduct_name
p43
V\u4f1f\u5723\u94dc\u82af\u805a\u6c2f\u4e59\u70ef\u7edd\u7f18\u7ede\u578b\u8fde\u63a5\u7528\u963b\u71c3\u8f6f\u7535\u7ebf
p44
sa(dp45
Vscore
p46
I8
sVproduct_id
p47
I1763
sVrank
p48
VD
sVproduct_name
p49
VJIANAN\u94dc\u82af\u805a\u6c2f\u4e59\u70ef\u7edd\u7f18\u7ede\u578b\u8fde\u63a5\u7528\u963b\u71c3\u8f6f\u7535\u7ebf
p50
sasVregionData
p51
(lp52
(dp53
Vscore
p54
V0.0
p55
sS'regionName'
p56
V\u6b66\u6c49\u5e02
p57
sVregion_id
p58
I1
sVrank
p59
VA
sa(dp60
Vscore
p61
V0.0
p62
sg56
V\u6d2a\u5c71\u533a
p63
sVregion_id
p64
I2
sVrank
p65
VA
sa(dp66
Vscore
p67
V0.0
p68
sg56
V\u6c5f\u590f\u533a
p69
sVregion_id
p70
I3
sVrank
p71
VA
sa(dp72
Vscore
p73
V0.0
p74
sg56
V\u9752\u5c71\u533a
p75
sVregion_id
p76
I4
sVrank
p77
VA
sa(dp78
Vscore
p79
V0.0
p80
sg56
V\u6c5f\u6c49\u533a
p81
sVregion_id
p82
I5
sVrank
p83
VA
sa(dp84
Vscore
p85
V0.3
p86
sg56
V\u6c5f\u5cb8\u533a
p87
sVregion_id
p88
I6
sVrank
p89
VA
sa(dp90
Vscore
p91
V0.2
p92
sg56
V\u9ec4\u9642\u533a
p93
sVregion_id
p94
I8
sVrank
p95
VA
sa(dp96
Vscore
p97
V0.0
p98
sg56
V\u65b0\u6d32\u533a
p99
sVregion_id
p100
I9
sVrank
p101
VA
sa(dp102
Vscore
p103
V0.1
p104
sg56
V\u4e1c\u897f\u6e56\u533a
p105
sVregion_id
p106
I10
sVrank
p107
VA
sa(dp108
Vscore
p109
V0.0
p110
sg56
V\u785a\u53e3\u533a
p111
sVregion_id
p112
I11
sVrank
p113
VA
sa(dp114
Vscore
p115
V0.2
p116
sg56
V\u6c49\u9633\u533a
p117
sVregion_id
p118
I12
sVrank
p119
VA
sa(dp120
Vscore
p121
V0.0
p122
sg56
V\u8521\u7538\u533a
p123
sVregion_id
p124
I13
sVrank
p125
VA
sa(dp126
Vscore
p127
V0.1
p128
sg56
V\u6c49\u5357\u533a
p129
sVregion_id
p130
I14
sVrank
p131
VA
sa(dp132
Vscore
p133
V0.0
p134
sg56
V\u6b66\u660c\u533a
p135
sVregion_id
p136
I15
sVrank
p137
VA
sasVcompanyData
p138
(lp139
(dp140
Vscore
p141
F5.3333334922790527
sVcompany_id
p142
I1019
sVrank
p143
VC
sVcompany_name
p144
V\u6b66\u6c49\u5927\u660e\u7535\u7f06\u6709\u9650\u516c\u53f8
p145
sa(dp146
Vscore
p147
I4
sVcompany_id
p148
I50
sVrank
p149
VB
sVcompany_name
p150
V\u6b66\u6c49\u8fe6\u5357\u7ebf\u7f06\u5236\u9020\u6709\u9650\u516c\u53f8
p151
sa(dp152
Vscore
p153
I4
sVcompany_id
p154
I630
sVrank
p155
VB
sVcompany_name
p156
V\u6b66\u6c49\u946b\u957f\u5cf0\u7535\u7f06\u6709\u9650\u516c\u53f8
p157
sas.